	.cpu cortex-m3
	.eabi_attribute 20, 1
	.eabi_attribute 21, 1
	.eabi_attribute 23, 3
	.eabi_attribute 24, 1
	.eabi_attribute 25, 1
	.eabi_attribute 26, 1
	.eabi_attribute 30, 6
	.eabi_attribute 34, 1
	.eabi_attribute 18, 4
	.file	"main.c"
	.text
.Ltext0:
	.cfi_sections	.debug_frame
	.align	1
	.global	Reserved_IRQHandler
	.arch armv7-m
	.syntax unified
	.thumb
	.thumb_func
	.fpu softvfp
	.type	Reserved_IRQHandler, %function
Reserved_IRQHandler:
.LFB0:
	.file 1 "./src/main.c"
	.loc 1 7 1
	.cfi_startproc
	@ args = 0, pretend = 0, frame = 0
	@ frame_needed = 1, uses_anonymous_args = 0
	@ link register save eliminated.
	push	{r7}
	.cfi_def_cfa_offset 4
	.cfi_offset 7, -4
	add	r7, sp, #0
	.cfi_def_cfa_register 7
.L2:
	.loc 1 8 8 discriminator 1
	b	.L2
	.cfi_endproc
.LFE0:
	.size	Reserved_IRQHandler, .-Reserved_IRQHandler
	.align	1
	.global	NMI_Handler
	.syntax unified
	.thumb
	.thumb_func
	.fpu softvfp
	.type	NMI_Handler, %function
NMI_Handler:
.LFB1:
	.loc 1 15 1
	.cfi_startproc
	@ args = 0, pretend = 0, frame = 0
	@ frame_needed = 1, uses_anonymous_args = 0
	@ link register save eliminated.
	push	{r7}
	.cfi_def_cfa_offset 4
	.cfi_offset 7, -4
	add	r7, sp, #0
	.cfi_def_cfa_register 7
.L4:
	.loc 1 16 8 discriminator 1
	b	.L4
	.cfi_endproc
.LFE1:
	.size	NMI_Handler, .-NMI_Handler
	.align	1
	.global	HardFault_Handler
	.syntax unified
	.thumb
	.thumb_func
	.fpu softvfp
	.type	HardFault_Handler, %function
HardFault_Handler:
.LFB2:
	.loc 1 23 1
	.cfi_startproc
	@ args = 0, pretend = 0, frame = 0
	@ frame_needed = 1, uses_anonymous_args = 0
	@ link register save eliminated.
	push	{r7}
	.cfi_def_cfa_offset 4
	.cfi_offset 7, -4
	add	r7, sp, #0
	.cfi_def_cfa_register 7
.L6:
	.loc 1 24 8 discriminator 1
	b	.L6
	.cfi_endproc
.LFE2:
	.size	HardFault_Handler, .-HardFault_Handler
	.align	1
	.global	SVC_Handler
	.syntax unified
	.thumb
	.thumb_func
	.fpu softvfp
	.type	SVC_Handler, %function
SVC_Handler:
.LFB3:
	.loc 1 31 1
	.cfi_startproc
	@ args = 0, pretend = 0, frame = 0
	@ frame_needed = 1, uses_anonymous_args = 0
	@ link register save eliminated.
	push	{r7}
	.cfi_def_cfa_offset 4
	.cfi_offset 7, -4
	add	r7, sp, #0
	.cfi_def_cfa_register 7
.L8:
	.loc 1 32 8 discriminator 1
	b	.L8
	.cfi_endproc
.LFE3:
	.size	SVC_Handler, .-SVC_Handler
	.align	1
	.global	PendSV_Handler
	.syntax unified
	.thumb
	.thumb_func
	.fpu softvfp
	.type	PendSV_Handler, %function
PendSV_Handler:
.LFB4:
	.loc 1 39 1
	.cfi_startproc
	@ args = 0, pretend = 0, frame = 0
	@ frame_needed = 1, uses_anonymous_args = 0
	@ link register save eliminated.
	push	{r7}
	.cfi_def_cfa_offset 4
	.cfi_offset 7, -4
	add	r7, sp, #0
	.cfi_def_cfa_register 7
.L10:
	.loc 1 40 8 discriminator 1
	b	.L10
	.cfi_endproc
.LFE4:
	.size	PendSV_Handler, .-PendSV_Handler
	.align	1
	.global	SysTick_Handler
	.syntax unified
	.thumb
	.thumb_func
	.fpu softvfp
	.type	SysTick_Handler, %function
SysTick_Handler:
.LFB5:
	.loc 1 47 1
	.cfi_startproc
	@ args = 0, pretend = 0, frame = 0
	@ frame_needed = 1, uses_anonymous_args = 0
	@ link register save eliminated.
	push	{r7}
	.cfi_def_cfa_offset 4
	.cfi_offset 7, -4
	add	r7, sp, #0
	.cfi_def_cfa_register 7
.L12:
	.loc 1 48 8 discriminator 1
	b	.L12
	.cfi_endproc
.LFE5:
	.size	SysTick_Handler, .-SysTick_Handler
	.align	1
	.global	main
	.syntax unified
	.thumb
	.thumb_func
	.fpu softvfp
	.type	main, %function
main:
.LFB6:
	.loc 1 59 1
	.cfi_startproc
	@ args = 0, pretend = 0, frame = 0
	@ frame_needed = 1, uses_anonymous_args = 0
	push	{r7, lr}
	.cfi_def_cfa_offset 8
	.cfi_offset 7, -8
	.cfi_offset 14, -4
	add	r7, sp, #0
	.cfi_def_cfa_register 7
	.loc 1 60 75
	ldr	r3, .L15
	ldr	r3, [r3, #24]
	ldr	r2, .L15
	orr	r3, r3, #16
	str	r3, [r2, #24]
	.loc 1 61 72
	ldr	r3, .L15+4
	ldr	r3, [r3, #4]
	ldr	r2, .L15+4
	bic	r3, r3, #15728640
	str	r3, [r2, #4]
	.loc 1 62 72
	ldr	r3, .L15+4
	ldr	r3, [r3, #4]
	ldr	r2, .L15+4
	orr	r3, r3, #3145728
	str	r3, [r2, #4]
	.loc 1 63 72
	ldr	r3, .L15+4
	ldr	r3, [r3, #12]
	ldr	r2, .L15+4
	orr	r3, r3, #8192
	str	r3, [r2, #12]
.L14:
	.loc 1 67 73 discriminator 1
	ldr	r3, .L15+4
	ldr	r3, [r3, #12]
	ldr	r2, .L15+4
	orr	r3, r3, #8192
	str	r3, [r2, #12]
	.loc 1 68 3 discriminator 1
	movs	r0, #10
	bl	delay
	.loc 1 69 73 discriminator 1
	ldr	r3, .L15+4
	ldr	r3, [r3, #12]
	ldr	r2, .L15+4
	bic	r3, r3, #8192
	str	r3, [r2, #12]
	.loc 1 70 3 discriminator 1
	movs	r0, #10
	bl	delay
	.loc 1 67 73 discriminator 1
	b	.L14
.L16:
	.align	2
.L15:
	.word	1073876992
	.word	1073811456
	.cfi_endproc
.LFE6:
	.size	main, .-main
	.align	1
	.global	delay
	.syntax unified
	.thumb
	.thumb_func
	.fpu softvfp
	.type	delay, %function
delay:
.LFB7:
	.loc 1 79 1
	.cfi_startproc
	@ args = 0, pretend = 0, frame = 16
	@ frame_needed = 1, uses_anonymous_args = 0
	@ link register save eliminated.
	push	{r7}
	.cfi_def_cfa_offset 4
	.cfi_offset 7, -4
	sub	sp, sp, #20
	.cfi_def_cfa_offset 24
	add	r7, sp, #0
	.cfi_def_cfa_register 7
	str	r0, [r7, #4]
	.loc 1 80 2
	b	.L18
.L21:
.LBB2:
	.loc 1 83 7
	movs	r3, #0
	str	r3, [r7, #12]
	.loc 1 83 2
	b	.L19
.L20:
	.loc 1 83 22 discriminator 3
	ldr	r3, [r7, #12]
	adds	r3, r3, #1
	str	r3, [r7, #12]
.L19:
	.loc 1 83 2 discriminator 1
	ldr	r3, [r7, #12]
	ldr	r2, .L22
	cmp	r3, r2
	ble	.L20
.LBE2:
	.loc 1 80 16
	ldr	r3, [r7, #4]
	subs	r3, r3, #1
	str	r3, [r7, #4]
.L18:
	.loc 1 80 2 discriminator 1
	ldr	r3, [r7, #4]
	cmp	r3, #0
	bgt	.L21
	.loc 1 86 1
	nop
	nop
	adds	r7, r7, #20
	.cfi_def_cfa_offset 4
	mov	sp, r7
	.cfi_def_cfa_register 13
	@ sp needed
	pop	{r7}
	.cfi_restore 7
	.cfi_def_cfa_offset 0
	bx	lr
.L23:
	.align	2
.L22:
	.word	99999
	.cfi_endproc
.LFE7:
	.size	delay, .-delay
.Letext0:
	.file 2 "e:\\gcc\\arm-none-eabi\\include\\machine\\_default_types.h"
	.file 3 "e:\\gcc\\arm-none-eabi\\include\\sys\\_stdint.h"
	.file 4 "./inc/stm32f10x.h"